target datalayout = "e-m:e-p270:32:32-p271:32:32-p272:64:64-i64:64-i128:128-f80:128-n8:16:32:64-S128"
target triple = "x86_64-pc-linux-gnu"

; Function Attrs: nounwind uwtable
define internal void @hadd(ptr noundef %0, ptr noundef %1, i32 noundef %2) #1 {
  %4 = alloca ptr, align 8
  %5 = alloca ptr, align 8
  %6 = alloca i32, align 4
  %7 = alloca i32, align 4
  store ptr %0, ptr %4, align 8, !tbaa !69
  store ptr %1, ptr %5, align 8, !tbaa !69
  store i32 %2, ptr %6, align 4, !tbaa !24
  call void @llvm.lifetime.start.p0(i64 4, ptr %7) #8
  store i32 0, ptr %7, align 4, !tbaa !24
  br label %8

8:                                                ; preds = %28, %3
  %9 = load i32, ptr %7, align 4, !tbaa !24
  %10 = load i32, ptr %6, align 4, !tbaa !24
  %11 = icmp slt i32 %9, %10
  br i1 %11, label %13, label %12

12:                                               ; preds = %8
  call void @llvm.lifetime.end.p0(i64 4, ptr %7) #8
  br label %31

13:                                               ; preds = %8
  %14 = load ptr, ptr %5, align 8, !tbaa !69
  %15 = load i32, ptr %7, align 4, !tbaa !24
  %16 = sext i32 %15 to i64
  %17 = getelementptr inbounds i16, ptr %14, i64 %16
  %18 = load i16, ptr %17, align 2, !tbaa !84
  %19 = zext i16 %18 to i32
  %20 = load ptr, ptr %4, align 8, !tbaa !69
  %21 = load i32, ptr %7, align 4, !tbaa !24
  %22 = sext i32 %21 to i64
  %23 = getelementptr inbounds i16, ptr %20, i64 %22
  %24 = load i16, ptr %23, align 2, !tbaa !84
  %25 = zext i16 %24 to i32
  %26 = add nsw i32 %25, %19
  %27 = trunc i32 %26 to i16
  store i16 %27, ptr %23, align 2, !tbaa !84
  br label %28

28:                                               ; preds = %13
  %29 = load i32, ptr %7, align 4, !tbaa !24
  %30 = add nsw i32 %29, 1
  store i32 %30, ptr %7, align 4, !tbaa !24
  br label %8, !llvm.loop !86

31:                                               ; preds = %12
  ret void
}